
hello_test.elf:     file format elf32-littleriscv


Disassembly of section .vectors:

00001000 <_vectors_start>:
    1000:	0800006f          	j	1080 <default_common_vector>
    1004:	07c0006f          	j	1080 <default_common_vector>
    1008:	0780006f          	j	1080 <default_common_vector>
    100c:	0740006f          	j	1080 <default_common_vector>
    1010:	0700006f          	j	1080 <default_common_vector>
    1014:	06c0006f          	j	1080 <default_common_vector>
    1018:	0680006f          	j	1080 <default_common_vector>
    101c:	0640006f          	j	1080 <default_common_vector>
    1020:	0600006f          	j	1080 <default_common_vector>
    1024:	05c0006f          	j	1080 <default_common_vector>
    1028:	0580006f          	j	1080 <default_common_vector>
    102c:	0540006f          	j	1080 <default_common_vector>
    1030:	0500006f          	j	1080 <default_common_vector>
    1034:	04c0006f          	j	1080 <default_common_vector>
    1038:	0480006f          	j	1080 <default_common_vector>
    103c:	0440006f          	j	1080 <default_common_vector>
    1040:	0400006f          	j	1080 <default_common_vector>
    1044:	03c0006f          	j	1080 <default_common_vector>
    1048:	0380006f          	j	1080 <default_common_vector>
    104c:	0340006f          	j	1080 <default_common_vector>
    1050:	0300006f          	j	1080 <default_common_vector>
    1054:	02c0006f          	j	1080 <default_common_vector>
    1058:	0280006f          	j	1080 <default_common_vector>
    105c:	0240006f          	j	1080 <default_common_vector>
    1060:	0200006f          	j	1080 <default_common_vector>
    1064:	01c0006f          	j	1080 <default_common_vector>
    1068:	0180006f          	j	1080 <default_common_vector>
    106c:	0140006f          	j	1080 <default_common_vector>
    1070:	0100006f          	j	1080 <default_common_vector>
    1074:	00c0006f          	j	1080 <default_common_vector>
    1078:	0080006f          	j	1080 <default_common_vector>
    107c:	0040006f          	j	1080 <default_common_vector>

00001080 <default_common_vector>:
    1080:	f8010113          	addi	sp,sp,-128
    1084:	00112223          	sw	ra,4(sp)
    1088:	00212423          	sw	sp,8(sp)
    108c:	00312623          	sw	gp,12(sp)
    1090:	00412823          	sw	tp,16(sp)
    1094:	00512a23          	sw	t0,20(sp)
    1098:	00612c23          	sw	t1,24(sp)
    109c:	00712e23          	sw	t2,28(sp)
    10a0:	02812023          	sw	s0,32(sp)
    10a4:	02912223          	sw	s1,36(sp)
    10a8:	02a12423          	sw	a0,40(sp)
    10ac:	02b12623          	sw	a1,44(sp)
    10b0:	02c12823          	sw	a2,48(sp)
    10b4:	02d12a23          	sw	a3,52(sp)
    10b8:	02e12c23          	sw	a4,56(sp)
    10bc:	02f12e23          	sw	a5,60(sp)
    10c0:	05012023          	sw	a6,64(sp)
    10c4:	05112223          	sw	a7,68(sp)
    10c8:	05212423          	sw	s2,72(sp)
    10cc:	05312623          	sw	s3,76(sp)
    10d0:	05412823          	sw	s4,80(sp)
    10d4:	05512a23          	sw	s5,84(sp)
    10d8:	05612c23          	sw	s6,88(sp)
    10dc:	05712e23          	sw	s7,92(sp)
    10e0:	07812023          	sw	s8,96(sp)
    10e4:	07912223          	sw	s9,100(sp)
    10e8:	07a12423          	sw	s10,104(sp)
    10ec:	07b12623          	sw	s11,108(sp)
    10f0:	07c12823          	sw	t3,112(sp)
    10f4:	07d12a23          	sw	t4,116(sp)
    10f8:	07e12c23          	sw	t5,120(sp)
    10fc:	07f12e23          	sw	t6,124(sp)
    1100:	34202573          	csrr	a0,mcause
    1104:	341025f3          	csrr	a1,mepc
    1108:	01f55613          	srli	a2,a0,0x1f
    110c:	00060663          	beqz	a2,1118 <default_exception_handle>
    1110:	828ff0ef          	jal	ra,138 <trap_handle>
    1114:	0080006f          	j	111c <return>

00001118 <default_exception_handle>:
    1118:	898ff0ef          	jal	ra,1b0 <exception_handle>

0000111c <return>:
    111c:	00412083          	lw	ra,4(sp)
    1120:	00812103          	lw	sp,8(sp)
    1124:	00c12183          	lw	gp,12(sp)
    1128:	01012203          	lw	tp,16(sp)
    112c:	01412283          	lw	t0,20(sp)
    1130:	01812303          	lw	t1,24(sp)
    1134:	01c12383          	lw	t2,28(sp)
    1138:	02012403          	lw	s0,32(sp)
    113c:	02412483          	lw	s1,36(sp)
    1140:	02812503          	lw	a0,40(sp)
    1144:	02c12583          	lw	a1,44(sp)
    1148:	03012603          	lw	a2,48(sp)
    114c:	03412683          	lw	a3,52(sp)
    1150:	03812703          	lw	a4,56(sp)
    1154:	03c12783          	lw	a5,60(sp)
    1158:	04012803          	lw	a6,64(sp)
    115c:	04412883          	lw	a7,68(sp)
    1160:	04812903          	lw	s2,72(sp)
    1164:	04c12983          	lw	s3,76(sp)
    1168:	05012a03          	lw	s4,80(sp)
    116c:	05412a83          	lw	s5,84(sp)
    1170:	05812b03          	lw	s6,88(sp)
    1174:	05c12b83          	lw	s7,92(sp)
    1178:	06012c03          	lw	s8,96(sp)
    117c:	06412c83          	lw	s9,100(sp)
    1180:	06812d03          	lw	s10,104(sp)
    1184:	06c12d83          	lw	s11,108(sp)
    1188:	07012e03          	lw	t3,112(sp)
    118c:	07412e83          	lw	t4,116(sp)
    1190:	07812f03          	lw	t5,120(sp)
    1194:	07c12f83          	lw	t6,124(sp)
    1198:	08010113          	addi	sp,sp,128
    119c:	30200073          	mret

Disassembly of section .text:

00000000 <_start>:
   0:	00000093          	li	ra,0
   4:	00008113          	mv	sp,ra
   8:	00008193          	mv	gp,ra
   c:	00008213          	mv	tp,ra
  10:	00008293          	mv	t0,ra
  14:	00008313          	mv	t1,ra
  18:	00008393          	mv	t2,ra
  1c:	00008413          	mv	s0,ra
  20:	00008493          	mv	s1,ra
  24:	00008513          	mv	a0,ra
  28:	00008593          	mv	a1,ra
  2c:	00008613          	mv	a2,ra
  30:	00008693          	mv	a3,ra
  34:	00008713          	mv	a4,ra
  38:	00008793          	mv	a5,ra
  3c:	00008813          	mv	a6,ra
  40:	00008893          	mv	a7,ra
  44:	00008913          	mv	s2,ra
  48:	00008993          	mv	s3,ra
  4c:	00008a13          	mv	s4,ra
  50:	00008a93          	mv	s5,ra
  54:	00008b13          	mv	s6,ra
  58:	00008b93          	mv	s7,ra
  5c:	00008c13          	mv	s8,ra
  60:	00008c93          	mv	s9,ra
  64:	00008d13          	mv	s10,ra
  68:	00008d93          	mv	s11,ra
  6c:	00008e13          	mv	t3,ra
  70:	00008e93          	mv	t4,ra
  74:	00008f13          	mv	t5,ra
  78:	00008f93          	mv	t6,ra
  7c:	00020117          	auipc	sp,0x20
  80:	f8410113          	addi	sp,sp,-124 # 20000 <_stack_start>
  84:	00010d17          	auipc	s10,0x10
  88:	fa8d0d13          	addi	s10,s10,-88 # 1002c <interrupt_handle>
  8c:	00010d97          	auipc	s11,0x10
  90:	0a0d8d93          	addi	s11,s11,160 # 1012c <_bss_end>
  94:	01bd5863          	bge	s10,s11,a4 <zero_loop_end>

00000098 <zero_loop>:
  98:	000d2023          	sw	zero,0(s10)
  9c:	004d0d13          	addi	s10,s10,4
  a0:	ffaddce3          	bge	s11,s10,98 <zero_loop>

000000a4 <zero_loop_end>:
  a4:	00000513          	li	a0,0
  a8:	00000593          	li	a1,0
  ac:	008000ef          	jal	ra,b4 <main>

000000b0 <loop>:
  b0:	0000006f          	j	b0 <loop>

000000b4 <main>:
  b4:	ff010113          	addi	sp,sp,-16
  b8:	00812623          	sw	s0,12(sp)
  bc:	01010413          	addi	s0,sp,16
  c0:	00000013          	nop
  c4:	00000013          	nop
  c8:	00078513          	mv	a0,a5
  cc:	00c12403          	lw	s0,12(sp)
  d0:	01010113          	addi	sp,sp,16
  d4:	00008067          	ret

000000d8 <interupt_enable>:
  d8:	fe010113          	addi	sp,sp,-32
  dc:	00812e23          	sw	s0,28(sp)
  e0:	02010413          	addi	s0,sp,32
  e4:	fea42623          	sw	a0,-20(s0)
  e8:	feb42423          	sw	a1,-24(s0)
  ec:	fec42223          	sw	a2,-28(s0)
  f0:	000107b7          	lui	a5,0x10
  f4:	02c78713          	addi	a4,a5,44 # 1002c <interrupt_handle>
  f8:	fec42783          	lw	a5,-20(s0)
  fc:	00379793          	slli	a5,a5,0x3
 100:	00f707b3          	add	a5,a4,a5
 104:	fe842703          	lw	a4,-24(s0)
 108:	00e7a023          	sw	a4,0(a5)
 10c:	000107b7          	lui	a5,0x10
 110:	02c78713          	addi	a4,a5,44 # 1002c <interrupt_handle>
 114:	fec42783          	lw	a5,-20(s0)
 118:	00379793          	slli	a5,a5,0x3
 11c:	00f707b3          	add	a5,a4,a5
 120:	fe442703          	lw	a4,-28(s0)
 124:	00e7a223          	sw	a4,4(a5)
 128:	00000013          	nop
 12c:	01c12403          	lw	s0,28(sp)
 130:	02010113          	addi	sp,sp,32
 134:	00008067          	ret

00000138 <trap_handle>:
 138:	fd010113          	addi	sp,sp,-48
 13c:	02112623          	sw	ra,44(sp)
 140:	02812423          	sw	s0,40(sp)
 144:	03010413          	addi	s0,sp,48
 148:	fca42e23          	sw	a0,-36(s0)
 14c:	fcb42c23          	sw	a1,-40(s0)
 150:	fdc42703          	lw	a4,-36(s0)
 154:	800007b7          	lui	a5,0x80000
 158:	00f777b3          	and	a5,a4,a5
 15c:	fef42623          	sw	a5,-20(s0)
 160:	000107b7          	lui	a5,0x10
 164:	02c78713          	addi	a4,a5,44 # 1002c <interrupt_handle>
 168:	fec42783          	lw	a5,-20(s0)
 16c:	00379793          	slli	a5,a5,0x3
 170:	00f707b3          	add	a5,a4,a5
 174:	0007a783          	lw	a5,0(a5)
 178:	00078693          	mv	a3,a5
 17c:	000107b7          	lui	a5,0x10
 180:	02c78713          	addi	a4,a5,44 # 1002c <interrupt_handle>
 184:	fec42783          	lw	a5,-20(s0)
 188:	00379793          	slli	a5,a5,0x3
 18c:	00f707b3          	add	a5,a4,a5
 190:	0047a783          	lw	a5,4(a5)
 194:	00078513          	mv	a0,a5
 198:	000680e7          	jalr	a3
 19c:	00000013          	nop
 1a0:	02c12083          	lw	ra,44(sp)
 1a4:	02812403          	lw	s0,40(sp)
 1a8:	03010113          	addi	sp,sp,48
 1ac:	00008067          	ret

000001b0 <exception_handle>:
 1b0:	fe010113          	addi	sp,sp,-32
 1b4:	00112e23          	sw	ra,28(sp)
 1b8:	00812c23          	sw	s0,24(sp)
 1bc:	02010413          	addi	s0,sp,32
 1c0:	fea42623          	sw	a0,-20(s0)
 1c4:	feb42423          	sw	a1,-24(s0)
 1c8:	00100593          	li	a1,1
 1cc:	000107b7          	lui	a5,0x10
 1d0:	00078513          	mv	a0,a5
 1d4:	018000ef          	jal	ra,1ec <printinfo>
 1d8:	00100593          	li	a1,1
 1dc:	000107b7          	lui	a5,0x10
 1e0:	01c78513          	addi	a0,a5,28 # 1001c <_stack_len+0x1c>
 1e4:	008000ef          	jal	ra,1ec <printinfo>
 1e8:	0000006f          	j	1e8 <exception_handle+0x38>

000001ec <printinfo>:
 1ec:	fe010113          	addi	sp,sp,-32
 1f0:	00112e23          	sw	ra,28(sp)
 1f4:	00812c23          	sw	s0,24(sp)
 1f8:	02010413          	addi	s0,sp,32
 1fc:	fea42623          	sw	a0,-20(s0)
 200:	feb42423          	sw	a1,-24(s0)
 204:	0940006f          	j	298 <printinfo+0xac>
 208:	fec42783          	lw	a5,-20(s0)
 20c:	0007c703          	lbu	a4,0(a5)
 210:	02500793          	li	a5,37
 214:	06f71663          	bne	a4,a5,280 <printinfo+0x94>
 218:	fec42783          	lw	a5,-20(s0)
 21c:	00178793          	addi	a5,a5,1
 220:	fef42623          	sw	a5,-20(s0)
 224:	fec42783          	lw	a5,-20(s0)
 228:	0007c783          	lbu	a5,0(a5)
 22c:	06400713          	li	a4,100
 230:	00e78863          	beq	a5,a4,240 <printinfo+0x54>
 234:	06800713          	li	a4,104
 238:	00e78c63          	beq	a5,a4,250 <printinfo+0x64>
 23c:	0240006f          	j	260 <printinfo+0x74>
 240:	fe842783          	lw	a5,-24(s0)
 244:	00078513          	mv	a0,a5
 248:	074000ef          	jal	ra,2bc <print_dec>
 24c:	0240006f          	j	270 <printinfo+0x84>
 250:	fe842783          	lw	a5,-24(s0)
 254:	00078513          	mv	a0,a5
 258:	0d4000ef          	jal	ra,32c <print_hex>
 25c:	0140006f          	j	270 <printinfo+0x84>
 260:	fe842783          	lw	a5,-24(s0)
 264:	00078513          	mv	a0,a5
 268:	0c4000ef          	jal	ra,32c <print_hex>
 26c:	00000013          	nop
 270:	fec42783          	lw	a5,-20(s0)
 274:	00178793          	addi	a5,a5,1
 278:	fef42623          	sw	a5,-20(s0)
 27c:	01c0006f          	j	298 <printinfo+0xac>
 280:	fec42783          	lw	a5,-20(s0)
 284:	00178713          	addi	a4,a5,1
 288:	fee42623          	sw	a4,-20(s0)
 28c:	0007c783          	lbu	a5,0(a5)
 290:	00078513          	mv	a0,a5
 294:	138000ef          	jal	ra,3cc <my_putchar>
 298:	fec42783          	lw	a5,-20(s0)
 29c:	0007c783          	lbu	a5,0(a5)
 2a0:	f60794e3          	bnez	a5,208 <printinfo+0x1c>
 2a4:	00000013          	nop
 2a8:	00000013          	nop
 2ac:	01c12083          	lw	ra,28(sp)
 2b0:	01812403          	lw	s0,24(sp)
 2b4:	02010113          	addi	sp,sp,32
 2b8:	00008067          	ret

000002bc <print_dec>:
 2bc:	fe010113          	addi	sp,sp,-32
 2c0:	00112e23          	sw	ra,28(sp)
 2c4:	00812c23          	sw	s0,24(sp)
 2c8:	02010413          	addi	s0,sp,32
 2cc:	fea42623          	sw	a0,-20(s0)
 2d0:	fec42703          	lw	a4,-20(s0)
 2d4:	00900793          	li	a5,9
 2d8:	02e7f463          	bgeu	a5,a4,300 <print_dec+0x44>
 2dc:	fec42703          	lw	a4,-20(s0)
 2e0:	00a00793          	li	a5,10
 2e4:	02f757b3          	divu	a5,a4,a5
 2e8:	00078513          	mv	a0,a5
 2ec:	fd1ff0ef          	jal	ra,2bc <print_dec>
 2f0:	fec42703          	lw	a4,-20(s0)
 2f4:	00a00793          	li	a5,10
 2f8:	02f777b3          	remu	a5,a4,a5
 2fc:	fef42623          	sw	a5,-20(s0)
 300:	fec42783          	lw	a5,-20(s0)
 304:	0ff7f793          	andi	a5,a5,255
 308:	03078793          	addi	a5,a5,48
 30c:	0ff7f793          	andi	a5,a5,255
 310:	00078513          	mv	a0,a5
 314:	0b8000ef          	jal	ra,3cc <my_putchar>
 318:	00000013          	nop
 31c:	01c12083          	lw	ra,28(sp)
 320:	01812403          	lw	s0,24(sp)
 324:	02010113          	addi	sp,sp,32
 328:	00008067          	ret

0000032c <print_hex>:
 32c:	fd010113          	addi	sp,sp,-48
 330:	02112623          	sw	ra,44(sp)
 334:	02812423          	sw	s0,40(sp)
 338:	03010413          	addi	s0,sp,48
 33c:	fca42e23          	sw	a0,-36(s0)
 340:	00800793          	li	a5,8
 344:	fef42623          	sw	a5,-20(s0)
 348:	03000513          	li	a0,48
 34c:	080000ef          	jal	ra,3cc <my_putchar>
 350:	07800513          	li	a0,120
 354:	078000ef          	jal	ra,3cc <my_putchar>
 358:	04c0006f          	j	3a4 <print_hex+0x78>
 35c:	fdc42783          	lw	a5,-36(s0)
 360:	01c7d793          	srli	a5,a5,0x1c
 364:	fef405a3          	sb	a5,-21(s0)
 368:	feb44703          	lbu	a4,-21(s0)
 36c:	00900793          	li	a5,9
 370:	00e7ea63          	bltu	a5,a4,384 <print_hex+0x58>
 374:	feb44783          	lbu	a5,-21(s0)
 378:	03078793          	addi	a5,a5,48
 37c:	0ff7f793          	andi	a5,a5,255
 380:	0100006f          	j	390 <print_hex+0x64>
 384:	feb44783          	lbu	a5,-21(s0)
 388:	05778793          	addi	a5,a5,87
 38c:	0ff7f793          	andi	a5,a5,255
 390:	00078513          	mv	a0,a5
 394:	038000ef          	jal	ra,3cc <my_putchar>
 398:	fdc42783          	lw	a5,-36(s0)
 39c:	00479793          	slli	a5,a5,0x4
 3a0:	fcf42e23          	sw	a5,-36(s0)
 3a4:	fec42783          	lw	a5,-20(s0)
 3a8:	fff78713          	addi	a4,a5,-1
 3ac:	fee42623          	sw	a4,-20(s0)
 3b0:	fa0796e3          	bnez	a5,35c <print_hex+0x30>
 3b4:	00000013          	nop
 3b8:	00000013          	nop
 3bc:	02c12083          	lw	ra,44(sp)
 3c0:	02812403          	lw	s0,40(sp)
 3c4:	03010113          	addi	sp,sp,48
 3c8:	00008067          	ret

000003cc <my_putchar>:
 3cc:	fe010113          	addi	sp,sp,-32
 3d0:	00812e23          	sw	s0,28(sp)
 3d4:	02010413          	addi	s0,sp,32
 3d8:	00050793          	mv	a5,a0
 3dc:	fef407a3          	sb	a5,-17(s0)
 3e0:	3c0007b7          	lui	a5,0x3c000
 3e4:	fef44703          	lbu	a4,-17(s0)
 3e8:	00e7a023          	sw	a4,0(a5) # 3c000000 <_stack_start+0x3bfe0000>
 3ec:	00000013          	nop
 3f0:	01c12403          	lw	s0,28(sp)
 3f4:	02010113          	addi	sp,sp,32
 3f8:	00008067          	ret
